; Function Attrs: mustprogress nounwind uwtable
define dso_local void @_ZN4node6crypto13SecureContext12SetRootCertsEv(ptr nocapture noundef nonnull readonly align 8 dereferenceable(128) %this) local_unnamed_addr #3 align 2 {
entry:
  %0 = load atomic i8, ptr @_ZGVZN4node6crypto24GetOrCreateRootCertStoreEvE5store acquire, align 8
  %guard.uninitialized.i = icmp eq i8 %0, 0
  br i1 %guard.uninitialized.i, label %init.check.i, label %_ZN4node6crypto24GetOrCreateRootCertStoreEv.exit, !prof !5

init.check.i:                                     ; preds = %entry
  %1 = tail call i32 @__cxa_guard_acquire(ptr nonnull @_ZGVZN4node6crypto24GetOrCreateRootCertStoreEvE5store) #20
  %tobool.not.i = icmp eq i32 %1, 0
  br i1 %tobool.not.i, label %_ZN4node6crypto24GetOrCreateRootCertStoreEv.exit, label %init.i

init.i:                                           ; preds = %init.check.i
  %call.i = tail call noundef ptr @_ZN4node6crypto16NewRootCertStoreEv()
  store ptr %call.i, ptr @_ZZN4node6crypto24GetOrCreateRootCertStoreEvE5store, align 8
  tail call void @__cxa_guard_release(ptr nonnull @_ZGVZN4node6crypto24GetOrCreateRootCertStoreEvE5store) #20
  br label %_ZN4node6crypto24GetOrCreateRootCertStoreEv.exit

_ZN4node6crypto24GetOrCreateRootCertStoreEv.exit: ; preds = %entry, %init.check.i, %init.i
  %2 = load ptr, ptr @_ZZN4node6crypto24GetOrCreateRootCertStoreEvE5store, align 8
  %call2 = tail call i32 @X509_STORE_up_ref(ptr noundef %2) #20
  %ctx_ = getelementptr inbounds i8, ptr %this, i64 32
  %3 = load ptr, ptr %ctx_, align 8
  tail call void @SSL_CTX_set_cert_store(ptr noundef %3, ptr noundef %2) #20
  tail call void @ERR_clear_error() #20
  ret void
}